(dp0
S'02018'
p1
(dp2
V2016
p3
I1
ssS'02319'
p4
(dp5
V2015
p6
I-1
sV2014
p7
I-1
sg3
I1
ssS'00941'
p8
(dp9
g3
I-1
sV2002
p10
I-1
sV2003
p11
I1
sV2001
p12
I-1
sV2006
p13
I1
sV2007
p14
I1
sV2004
p15
I1
sV2005
p16
I1
sg6
I-1
sg7
I1
sV2008
p17
I-1
sV2009
p18
I-1
sV2011
p19
I1
sV2010
p20
I-1
sV2013
p21
I-1
sV2012
p22
I1
ssS'03328'
p23
(dp24
g3
I1
sg14
I1
sg6
I-1
sg7
I1
sg17
I-1
sg18
I1
sg19
I-1
sg20
I-1
sg21
I-1
sg22
I1
ssS'00688'
p25
(dp26
g3
I-1
sg14
I-1
sg6
I-1
sg7
I1
sg17
I-1
sg18
I1
sg19
I-1
sg20
I-1
sg21
I-1
sg22
I1
ssS'01109'
p27
(dp28
g6
I-1
sg7
I1
sg3
I1
sg19
I1
sg20
I-1
sg21
I-1
sg22
I1
ssS'01044'
p29
(dp30
g6
I-1
sg7
I1
sg3
I-1
sg19
I1
sg21
I1
sg22
I-1
ssS'02318'
p31
(dp32
g3
I1
sg14
I1
sg6
I-1
sg7
I1
sg17
I-1
sg18
I1
sg19
I-1
sg20
I1
sg21
I1
sg22
I1
ssS'00823'
p33
(dp34
g6
I1
sg7
I1
sg3
I1
ssS'00291'
p35
(dp36
g3
I1
sg10
I-1
sg11
I1
sg12
I-1
sg13
I1
sg14
I-1
sg15
I1
sg16
I1
sg6
I-1
sg7
I-1
sg17
I-1
sg18
I1
sg19
I-1
sg20
I1
sg21
I-1
sg22
I1
ssS'00293'
p37
(dp38
g3
I-1
sg10
I-1
sg11
I1
sg12
I1
sg13
I1
sg14
I-1
sg15
I-1
sg16
I-1
sg6
I-1
sg7
I1
sg17
I-1
sg18
I1
sg19
I-1
sg20
I1
sg21
I1
sg22
I1
ssS'00511'
p39
(dp40
g10
I-1
sg11
I1
sg12
I1
sg15
I1
ssS'01898'
p41
(dp42
g7
I1
sg19
I-1
sg20
I1
sg21
I-1
sg22
I1
ssS'00005'
p43
(dp44
g3
I1
sg10
I-1
sg11
I1
sg12
I-1
sg13
I1
sg14
I-1
sg15
I1
sg16
I1
sg6
I-1
sg7
I-1
sg17
I-1
sg18
I1
sg19
I-1
sg20
I1
sg21
I-1
sg22
I1
ssS'00179'
p45
(dp46
g10
I1
sg11
I-1
sg12
I1
sg13
I-1
sg15
I-1
sg16
I-1
ssS'03988'
p47
(dp48
g3
I1
sg14
I-1
sg6
I-1
sg7
I1
sg17
I-1
sg18
I1
sg19
I-1
sg20
I1
sg21
I-1
sg22
I1
ssS'00151'
p49
(dp50
g6
I-1
sg7
I-1
sg3
I-1
sg19
I1
sg21
I-1
sg22
I1
ssS'00097'
p51
(dp52
g10
I1
sg11
I1
sg12
I1
sg15
I-1
sg16
I1
ssS'00551'
p53
(dp54
g11
I1
sg13
I1
sg14
I-1
sg15
I-1
sg16
I-1
sg17
I-1
sg18
I1
ssS'00330'
p55
(dp56
g10
I1
sg11
I1
sg13
I1
sg14
I-1
sg15
I1
sg16
I1
sg17
I1
sg18
I-1
sg19
I1
sg20
I-1
sg21
I-1
sg22
I1
ssS'00762'
p57
(dp58
g3
I1
sg11
I1
sg12
I-1
sg13
I1
sg14
I1
sg15
I1
sg16
I1
sg6
I-1
sg7
I1
sg17
I-1
sg18
I-1
sg19
I-1
sg20
I1
sg21
I1
sg22
I-1
ssS'00700'
p59
(dp60
g3
I1
sg6
I-1
sg7
I-1
sg17
I-1
sg18
I1
sg19
I-1
sg20
I1
sg21
I1
sg22
I1
ssS'00016'
p61
(dp62
g3
I1
sg10
I1
sg11
I1
sg12
I-1
sg13
I1
sg14
I-1
sg15
I1
sg16
I1
sg6
I1
sg7
I-1
sg17
I1
sg18
I1
sg19
I-1
sg20
I-1
sg21
I1
sg22
I-1
ssS'00017'
p63
(dp64
g3
I1
sg10
I1
sg11
I1
sg12
I-1
sg13
I1
sg14
I-1
sg16
I1
sg6
I1
sg7
I-1
sg17
I1
sg18
I-1
sg19
I1
sg20
I-1
sg21
I-1
sg22
I-1
ssS'00014'
p65
(dp66
g10
I-1
sg12
I-1
ssS'00006'
p67
(dp68
g3
I-1
sg10
I1
sg11
I1
sg12
I1
sg13
I1
sg14
I1
sg15
I1
sg16
I1
sg6
I-1
sg7
I1
sg17
I-1
sg18
I1
sg19
I1
sg20
I1
sg21
I-1
sg22
I1
ssS'00012'
p69
(dp70
g10
I1
sg11
I1
sg12
I-1
sg13
I1
sg14
I-1
sg15
I-1
sg16
I1
sg6
I-1
sg7
I1
sg17
I1
sg3
I1
sg19
I-1
sg20
I1
sg21
I-1
sg22
I1
ssS'00010'
p71
(dp72
g10
I1
sg12
I1
ssS'00011'
p73
(dp74
g3
I1
sg10
I-1
sg11
I1
sg12
I-1
sg13
I1
sg14
I-1
sg15
I1
sg16
I-1
sg6
I-1
sg7
I1
sg17
I-1
sg18
I1
sg19
I-1
sg20
I1
sg21
I-1
sg22
I1
ssS'00027'
p75
(dp76
g6
I-1
sg7
I-1
sg3
I1
sg21
I1
ssS'00175'
p77
(dp78
sS'00494'
p79
(dp80
g3
I-1
sg10
I-1
sg11
I1
sg12
I-1
sg13
I1
sg14
I1
sg15
I1
sg16
I1
sg6
I-1
sg7
I-1
sg17
I-1
sg18
I1
sg19
I-1
sg20
I1
sg21
I-1
sg22
I-1
ssS'00019'
p81
(dp82
g3
I-1
sg10
I-1
sg11
I1
sg12
I-1
sg13
I1
sg14
I1
sg15
I1
sg16
I1
sg6
I-1
sg7
I1
sg17
I-1
sg18
I1
sg19
I-1
sg20
I1
sg21
I-1
sg22
I1
ssS'00836'
p83
(dp84
g3
I1
sg6
I-1
sg7
I-1
sg18
I-1
sg19
I-1
sg20
I-1
sg21
I-1
sg22
I1
ssS'00857'
p85
(dp86
g3
I1
sg14
I1
sg6
I-1
sg7
I-1
sg17
I-1
sg18
I1
sg19
I-1
sg20
I1
sg21
I-1
sg22
I1
ssS'00992'
p87
(dp88
g10
I-1
sg11
I-1
sg12
I-1
sg13
I1
sg15
I1
sg16
I-1
sg6
I-1
sg7
I1
sg3
I-1
sg21
I1
ssS'01928'
p89
(dp90
g6
I-1
sg7
I-1
sg3
I1
sg21
I1
sg22
I1
ssS'01199'
p91
(dp92
g11
I1
sg13
I1
sg14
I-1
sg15
I1
sg16
I-1
sg7
I1
sg17
I-1
sg18
I1
sg19
I-1
sg20
I1
sg21
I-1
sg22
I1
ssS'01113'
p93
(dp94
g3
I1
ssS'00939'
p95
(dp96
g3
I1
sg13
I1
sg14
I1
sg6
I-1
sg7
I1
sg17
I-1
sg18
I1
sg19
I-1
sg20
I1
sg21
I-1
sg22
I1
ssS'00322'
p97
(dp98
g6
I-1
sg7
I-1
sg3
I1
sg19
I1
sg21
I1
sg22
I1
ssS'00288'
p99
(dp100
sS'00386'
p101
(dp102
g3
I1
sg13
I1
sg14
I1
sg6
I-1
sg7
I-1
sg17
I-1
sg18
I1
sg19
I1
sg20
I1
sg21
I-1
sg22
I1
ssS'00135'
p103
(dp104
g6
I-1
sg7
I-1
sg3
I1
sg21
I-1
sg22
I1
ssS'00363'
p105
(dp106
g10
I-1
sg11
I1
sg12
I1
sg15
I1
ssS'00066'
p107
(dp108
g3
I1
sg10
I-1
sg11
I1
sg12
I-1
sg13
I1
sg14
I1
sg15
I1
sg16
I1
sg6
I1
sg7
I1
sg17
I-1
sg18
I1
sg19
I-1
sg20
I1
sg21
I-1
sg22
I1
ssS'01299'
p109
(dp110
g6
I-1
sg7
I1
sg3
I1
sg19
I-1
sg21
I1
sg22
I1
ssS'01038'
p111
(dp112
g10
I1
sg11
I1
sg12
I-1
sg13
I1
sg14
I1
sg15
I1
sg16
I1
sg17
I-1
sg3
I-1
ssS'00144'
p113
(dp114
g3
I-1
sg13
I1
sg14
I1
sg15
I1
sg16
I1
sg6
I-1
sg7
I1
sg17
I-1
sg18
I1
sg19
I-1
sg20
I1
sg21
I1
sg22
I1
ssS'00883'
p115
(dp116
g3
I1
sg10
I-1
sg11
I1
sg12
I1
sg13
I1
sg14
I1
sg15
I1
sg16
I1
sg6
I-1
sg7
I-1
sg17
I-1
sg18
I1
sg19
I-1
sg20
I1
sg21
I-1
sg22
I1
ssS'02388'
p117
(dp118
g3
I1
sg10
I1
sg11
I1
sg13
I1
sg14
I1
sg15
I1
sg16
I1
sg6
I-1
sg7
I1
sg17
I-1
sg18
I1
sg19
I-1
sg20
I1
sg21
I-1
sg22
I1
ssS'02038'
p119
(dp120
g13
I1
sg14
I-1
sg17
I-1
sg18
I1
sg19
I1
sg20
I-1
ssS'00083'
p121
(dp122
g3
I1
sg10
I1
sg11
I1
sg12
I-1
sg13
I1
sg14
I-1
sg16
I1
sg6
I1
sg7
I-1
sg17
I1
sg18
I-1
sg19
I1
sg20
I-1
sg21
I1
sg22
I-1
ssS'00008'
p123
(dp124
g10
I1
sg11
I1
sg12
I-1
sg13
I-1
sg14
I-1
sg15
I-1
sg16
I1
sg17
I-1
ssS'00023'
p125
(dp126
g3
I1
sg10
I-1
sg11
I1
sg12
I-1
sg13
I1
sg14
I-1
sg15
I1
sg16
I1
sg6
I-1
sg7
I-1
sg17
I-1
sg18
I1
sg19
I-1
sg20
I1
sg21
I1
sg22
I1
ssS'00004'
p127
(dp128
g3
I1
sg10
I-1
sg11
I1
sg13
I1
sg14
I-1
sg15
I1
sg16
I1
sg6
I-1
sg7
I1
sg17
I-1
sg18
I1
sg19
I-1
sg20
I1
sg21
I-1
sg22
I1
ssS'00267'
p129
(dp130
g3
I-1
sg10
I-1
sg11
I1
sg12
I-1
sg13
I1
sg14
I1
sg15
I1
sg16
I1
sg6
I-1
sg7
I-1
sg17
I-1
sg18
I1
sg19
I-1
sg20
I1
sg21
I1
sg22
I-1
ssS'00020'
p131
(dp132
g10
I1
sg11
I1
sg15
I1
sg16
I1
ssS'00001'
p133
(dp134
g3
I1
sg10
I-1
sg11
I1
sg12
I-1
sg13
I1
sg14
I1
sg15
I1
sg16
I1
sg6
I-1
sg7
I1
sg17
I-1
sg18
I1
sg19
I-1
sg20
I1
sg21
I1
sg22
I1
ssS'01088'
p135
(dp136
g3
I1
sg14
I1
sg6
I-1
sg7
I-1
sg17
I-1
sg18
I1
sg19
I-1
sg20
I1
sg21
I-1
sg22
I1
ssS'00003'
p137
(dp138
g3
I1
sg10
I-1
sg11
I1
sg12
I1
sg13
I1
sg14
I1
sg15
I1
sg16
I1
sg6
I-1
sg7
I1
sg17
I-1
sg18
I1
sg19
I1
sg20
I-1
sg21
I-1
sg22
I1
ssS'00002'
p139
(dp140
g3
I1
sg10
I1
sg11
I1
sg12
I-1
sg13
I1
sg14
I1
sg15
I1
sg16
I1
sg6
I-1
sg7
I1
sg17
I-1
sg18
I1
sg19
I1
sg20
I1
sg21
I-1
sg22
I1
ssS'02628'
p141
(dp142
g3
I1
sg14
I1
sg6
I-1
sg7
I1
sg17
I-1
sg18
I1
sg19
I-1
sg20
I-1
sg21
I1
sg22
I1
ssS'00101'
p143
(dp144
g3
I1
sg10
I1
sg11
I1
sg12
I-1
sg13
I1
sg14
I-1
sg15
I1
sg16
I1
sg6
I-1
sg7
I-1
sg17
I1
sg18
I1
sg19
I1
sg20
I-1
sg21
I-1
sg22
I1
ssS'00388'
p145
(dp146
g3
I1
sg13
I1
sg14
I-1
sg6
I-1
sg7
I1
sg17
I-1
sg18
I1
sg19
I-1
sg20
I1
sg21
I-1
sg22
I1
ssS'02600'
p147
(dp148
g17
I-1
sg18
I1
sg19
I-1
sg20
I1
sg21
I1
sg22
I1
ss.