(dp0
S'00906'
p1
(dp2
S'2009'
p3
NsS'2002'
p4
NsS'2003'
p5
NsS'2000'
p6
NsS'2001'
p7
NsS'2006'
p8
NsS'2007'
p9
NsS'2004'
p10
NsS'2005'
p11
NsS'2015'
p12
S'2015-04-24'
p13
sS'2014'
p14
S'2014-04-24'
p15
sS'2008'
p16
NsS'2016'
p17
S'2016-04-22'
p18
sS'2011'
p19
S'2011-04-18'
p20
sS'2010'
p21
S'2010-04-26'
p22
sS'2013'
p23
S'2013-04-26'
p24
sS'2012'
p25
S'2012-04-25'
p26
ssS'00762'
p27
(dp28
g17
S'2016-04-08'
p29
sg21
S'2010-04-12'
p30
sg4
S'2002-04-17'
p31
sg5
S'2003-04-14'
p32
sg6
Nsg7
S'2001-04-23'
p33
sg8
S'2006-04-18'
p34
sg9
S'2007-10-10'
p35
sg10
S'2004-04-08'
p36
sg11
S'2005-04-19'
p37
sg12
S'2015-03-17'
p38
sg14
S'2014-03-11'
p39
sS'2017'
p40
S'2017-03-31'
p41
sg3
S'2009-04-15'
p42
sg19
S'2011-04-11'
p43
sg16
S'2008-04-18'
p44
sg23
S'2013-04-05'
p45
sg25
S'2012-04-05'
p46
ssS'02319'
p47
(dp48
g17
S'2016-04-29'
p49
sg21
S'2010-04-29'
p50
sg4
Nsg5
Nsg6
Nsg7
Nsg8
S'2006-05-02'
p51
sg9
S'2007-10-12'
p52
sg10
Nsg11
S'2005-04-28'
p53
sg12
S'2015-04-29'
p54
sg14
S'2014-04-29'
p55
sS'2017'
p56
S'2017-04-27'
p57
sg3
S'2009-04-29'
p58
sg19
S'2011-04-26'
p59
sg16
S'2008-04-28'
p60
sg23
S'2013-04-29'
p61
sg25
S'2012-04-27'
p62
ssS'00941'
p63
(dp64
g17
S'2016-04-11'
p65
sg21
S'2010-04-07'
p66
sg4
S'2002-04-10'
p67
sg5
S'2003-04-03'
p68
sg6
Nsg7
S'2001-04-27'
p69
sg8
S'2006-03-30'
p70
sg9
S'2007-04-03'
p71
sg10
S'2004-03-31'
p72
sg11
S'2005-03-24'
p73
sg12
S'2015-04-08'
p74
sg14
S'2014-04-08'
p75
sS'2017'
p76
S'2017-04-12'
p77
sg3
S'2009-04-01'
p78
sg19
S'2011-04-07'
p79
sg16
S'2008-04-07'
p80
sg23
S'2013-03-27'
p81
sg25
S'2012-03-29'
p82
ssS'00494'
p83
(dp84
g17
S'2016-04-18'
p85
sg21
S'2010-04-16'
p86
sg4
S'2002-04-09'
p87
sg5
S'2003-04-07'
p88
sg6
Nsg7
S'2001-04-11'
p89
sg8
S'2006-04-20'
p90
sg9
S'2007-04-10'
p91
sg10
S'2004-04-07'
p92
sg11
S'2005-04-07'
p93
sg12
S'2015-04-20'
p94
sg14
S'2014-04-09'
p95
sS'2017'
p96
S'2017-04-27'
p97
sg3
S'2009-04-08'
p98
sg19
S'2011-04-11'
p99
sg16
S'2008-04-18'
p100
sg23
S'2013-04-11'
p101
sg25
S'2012-04-11'
p102
ssS'01880'
p103
(dp104
g3
S'2009-04-14'
p105
sg4
Nsg5
Nsg6
Nsg7
Nsg8
Nsg9
S'2007-10-12'
p106
sg10
Nsg11
Nsg12
S'2015-06-25'
p107
sg14
S'2014-06-27'
p108
sg16
S'2008-04-23'
p109
sg17
S'2016-06-20'
p110
sg19
S'2011-04-21'
p111
sg21
S'2010-04-26'
p112
sg23
S'2013-04-19'
p113
sg25
S'2012-04-23'
p114
ssS'01928'
p115
(dp116
g17
S'2016-03-23'
p117
sg21
S'2010-04-23'
p118
sg4
Nsg5
Nsg6
Nsg7
Nsg8
Nsg9
Nsg10
Nsg11
Nsg12
S'2015-03-26'
p119
sg14
S'2014-03-27'
p120
sS'2017'
p121
S'2017-03-30'
p122
sg3
Nsg19
S'2011-04-20'
p123
sg16
Nsg23
S'2013-03-21'
p124
sg25
S'2012-04-26'
p125
ssS'00688'
p126
(dp127
g17
S'2016-04-05'
p128
sg21
S'2010-04-19'
p129
sg4
S'2002-05-13'
p130
sg5
S'2003-04-23'
p131
sg6
Nsg7
Nsg8
S'2006-05-02'
p132
sg9
S'2007-10-10'
p133
sg10
S'2004-04-28'
p134
sg11
S'2005-04-12'
p135
sg12
S'2015-04-20'
p136
sg14
S'2014-04-08'
p137
sS'2017'
p138
S'2017-04-24'
p139
sg3
S'2009-04-22'
p140
sg19
S'2011-04-12'
p141
sg16
S'2008-04-25'
p142
sg23
S'2013-04-11'
p143
sg25
S'2012-04-12'
p144
ssS'00083'
p145
(dp146
g17
S'2016-09-14'
p147
sg21
S'2010-09-24'
p148
sg4
S'2002-10-11'
p149
sg5
S'2003-10-07'
p150
sg6
Nsg7
S'2001-10-19'
p151
sg8
S'2006-10-16'
p152
sg9
S'2007-10-12'
p153
sg10
S'2004-10-07'
p154
sg11
S'2005-10-14'
p155
sg12
S'2015-09-17'
p156
sg14
S'2014-09-18'
p157
sS'2017'
p158
S'2017-09-14'
p159
sg3
S'2009-10-02'
p160
sg19
S'2011-09-23'
p161
sg16
S'2008-10-10'
p162
sg23
S'2013-09-18'
p163
sg25
S'2012-09-25'
p164
ssS'01044'
p165
(dp166
g17
S'2016-04-17'
p167
sg21
S'2010-04-15'
p168
sg4
Nsg5
S'2003-04-08'
p169
sg6
Nsg7
Nsg8
S'2006-04-10'
p170
sg9
S'2007-10-12'
p171
sg10
S'2004-04-06'
p172
sg11
S'2005-04-06'
p173
sg12
S'2015-04-16'
p174
sg14
S'2014-04-15'
p175
sS'2017'
p176
S'2017-04-10'
p177
sg3
S'2009-04-08'
p178
sg19
S'2011-04-19'
p179
sg16
S'2008-04-11'
p180
sg23
S'2013-04-18'
p181
sg25
S'2012-04-18'
p182
ssS'02318'
p183
(dp184
g17
S'2016-03-29'
p185
sg21
S'2010-04-27'
p186
sg4
Nsg5
Nsg6
Nsg7
Nsg8
S'2006-04-07'
p187
sg9
S'2007-04-19'
p188
sg10
Nsg11
S'2005-04-28'
p189
sg12
S'2015-04-16'
p190
sg14
S'2014-03-27'
p191
sS'2017'
p192
S'2017-04-21'
p193
sg3
S'2009-04-16'
p194
sg19
S'2011-04-06'
p195
sg16
S'2008-03-26'
p196
sg23
S'2013-03-27'
p197
sg25
S'2012-03-27'
p198
ssS'00823'
p199
(dp200
g17
S'2016-06-24'
p201
sg21
S'2010-06-25'
p202
sg4
Nsg5
Nsg6
Nsg7
Nsg8
S'2006-07-14'
p203
sg9
S'2007-06-26'
p204
sg10
Nsg11
Nsg12
S'2015-06-19'
p205
sg14
S'2014-06-26'
p206
sS'2017'
p207
S'2017-06-26'
p208
sg3
S'2009-07-03'
p209
sg19
S'2011-06-10'
p210
sg16
S'2008-06-30'
p211
sg23
S'2013-06-27'
p212
sg25
S'2012-06-22'
p213
ssS'00291'
p214
(dp215
g17
S'2016-04-22'
p216
sg4
S'2002-05-06'
p217
sg5
S'2003-04-17'
p218
sg6
Nsg7
S'2001-04-27'
p219
sg8
S'2006-05-02'
p220
sg9
S'2007-04-30'
p221
sg10
S'2004-04-23'
p222
sg11
S'2005-04-21'
p223
sg12
S'2015-04-24'
p224
sg14
S'2014-04-24'
p225
sg16
S'2008-04-24'
p226
sg3
S'2009-04-21'
p227
sg19
S'2011-04-20'
p228
sg21
S'2010-04-20'
p229
sg23
S'2013-04-22'
p230
sg25
S'2012-04-20'
p231
ssS'00293'
p232
(dp233
g17
S'2016-04-06'
p234
sg21
S'2010-04-01'
p235
sg4
S'2002-04-11'
p236
sg5
S'2003-03-17'
p237
sg6
Nsg7
S'2001-03-28'
p238
sg8
S'2006-03-30'
p239
sg9
S'2007-04-03'
p240
sg10
S'2004-03-25'
p241
sg11
S'2005-04-08'
p242
sg12
S'2015-04-08'
p243
sg14
S'2014-04-02'
p244
sS'2017'
p245
S'2017-04-05'
p246
sg3
S'2009-04-02'
p247
sg19
S'2011-04-01'
p248
sg16
S'2008-03-27'
p249
sg23
S'2013-04-02'
p250
sg25
S'2012-04-03'
p251
ssS'00511'
p252
(dp253
g17
S'2016-04-18'
p254
sg4
S'2002-04-18'
p255
sg5
S'2003-04-10'
p256
sg6
Nsg7
S'2001-05-04'
p257
sg8
Nsg9
S'2007-10-15'
p258
sg10
S'2004-03-31'
p259
sg11
Nsg12
S'2015-04-15'
p260
sg14
S'2014-04-08'
p261
sg16
S'2008-04-17'
p262
sg3
S'2009-04-16'
p263
sg19
S'2011-04-18'
p264
sg21
S'2010-04-19'
p265
sg23
S'2013-04-18'
p266
sg25
S'2012-04-12'
p267
ssS'01898'
p268
(dp269
g3
S'2009-04-14'
p270
sg4
Nsg5
Nsg6
Nsg7
Nsg8
Nsg9
S'2007-10-30'
p271
sg10
Nsg11
Nsg12
S'2015-04-29'
p272
sg14
S'2014-03-28'
p273
sg16
S'2008-04-22'
p274
sg17
S'2016-04-29'
p275
sg19
S'2011-04-07'
p276
sg21
S'2010-04-29'
p277
sg23
S'2013-03-27'
p278
sg25
S'2012-04-05'
p279
ssS'00135'
p280
(dp281
g17
S'2016-04-01'
p282
sg21
S'2010-04-20'
p283
sg4
Nsg5
Nsg6
Nsg7
Nsg8
S'2006-04-25'
p284
sg9
S'2007-04-24'
p285
sg10
Nsg11
S'2005-04-28'
p286
sg12
S'2015-04-02'
p287
sg14
S'2014-04-04'
p288
sS'2017'
p289
S'2017-04-12'
p290
sg3
S'2009-04-08'
p291
sg19
S'2011-04-04'
p292
sg16
S'2008-04-22'
p293
sg23
S'2013-04-09'
p294
sg25
S'2012-04-11'
p295
ssS'00179'
p296
(dp297
g17
S'2016-06-01'
p298
sg4
S'2002-07-04'
p299
sg5
S'2003-06-19'
p300
sg6
Nsg7
S'2001-07-03'
p301
sg8
S'2006-06-26'
p302
sg9
S'2007-06-27'
p303
sg10
S'2004-06-23'
p304
sg11
S'2005-06-30'
p305
sg12
S'2015-05-27'
p306
sg14
S'2014-05-28'
p307
sg16
S'2008-06-27'
p308
sg3
S'2009-06-26'
p309
sg19
S'2011-06-15'
p310
sg21
S'2010-06-23'
p311
sg23
S'2013-05-31'
p312
sg25
S'2012-06-01'
p313
ssS'03988'
p314
(dp315
g17
S'2016-03-30'
p316
sg21
S'2010-04-26'
p317
sg4
Nsg5
Nsg6
Nsg7
Nsg8
Nsg9
S'2007-04-25'
p318
sg10
Nsg11
Nsg12
S'2015-03-25'
p319
sg14
S'2014-03-26'
p320
sS'2017'
p321
S'2017-03-31'
p322
sg3
S'2009-04-30'
p323
sg19
S'2011-04-27'
p324
sg16
S'2008-04-29'
p325
sg23
S'2013-03-26'
p326
sg25
S'2012-04-27'
p327
ssS'00151'
p328
(dp329
g17
S'2016-03-31'
p330
sg21
S'2010-03-23'
p331
sg4
Nsg5
Nsg6
Nsg7
Nsg8
Nsg9
Nsg10
Nsg11
Nsg12
S'2015-03-30'
p332
sg14
S'2014-03-24'
p333
sS'2017'
p334
S'2017-03-31'
p335
sg3
S'2009-03-19'
p336
sg19
S'2011-03-23'
p337
sg16
S'2008-04-30'
p338
sg23
S'2013-03-21'
p339
sg25
S'2012-03-21'
p340
ssS'00097'
p341
(dp342
g17
S'2016-04-25'
p343
sg4
S'2002-10-29'
p344
sg5
S'2003-10-27'
p345
sg6
Nsg7
S'2001-10-26'
p346
sg8
S'2006-10-26'
p347
sg9
S'2007-10-16'
p348
sg10
S'2004-10-27'
p349
sg11
S'2005-10-27'
p350
sg12
S'2015-04-27'
p351
sg14
S'2014-04-23'
p352
sg16
S'2008-10-23'
p353
sg3
Nsg19
S'2011-04-15'
p354
sg21
S'2010-04-28'
p355
sg23
S'2013-04-25'
p356
sg25
S'2012-04-20'
p357
ssS'00551'
p358
(dp359
g3
S'2009-01-23'
p360
sg4
Nsg5
S'2003-01-30'
p361
sg6
Nsg7
Nsg8
S'2006-01-26'
p362
sg9
S'2007-01-31'
p363
sg10
S'2004-01-30'
p364
sg11
S'2005-01-31'
p365
sg12
S'2015-04-23'
p366
sg14
S'2014-04-24'
p367
sg16
S'2008-01-30'
p368
sg17
S'2016-04-21'
p369
sg19
S'2011-01-27'
p370
sg21
S'2010-01-28'
p371
sg23
S'2013-04-22'
p372
sg25
S'2012-01-18'
p373
ssS'00330'
p374
(dp375
g3
S'2009-10-07'
p376
sg4
S'2002-10-10'
p377
sg5
S'2003-10-22'
p378
sg6
Nsg7
Nsg8
S'2006-10-13'
p379
sg9
S'2007-09-19'
p380
sg10
S'2004-09-30'
p381
sg11
S'2005-10-19'
p382
sg12
S'2015-10-19'
p383
sg14
S'2014-10-13'
p384
sg16
S'2008-09-25'
p385
sg17
S'2016-10-17'
p386
sg19
S'2011-10-13'
p387
sg21
S'2010-10-08'
p388
sg23
S'2013-10-11'
p389
sg25
S'2012-10-16'
p390
ssS'00007'
p391
(dp392
g17
S'2016-04-28'
p393
sg21
S'2010-04-29'
p394
sg4
S'2002-07-30'
p395
sg5
S'2003-07-30'
p396
sg6
Nsg7
Nsg8
S'2006-05-02'
p397
sg9
S'2007-05-03'
p398
sg10
S'2004-07-28'
p399
sg11
S'2005-04-29'
p400
sg12
S'2015-04-29'
p401
sg14
S'2014-04-29'
p402
sS'2017'
p403
S'2017-04-27'
p404
sg3
S'2009-04-28'
p405
sg19
S'2011-04-21'
p406
sg16
S'2008-04-29'
p407
sg23
S'2013-04-29'
p408
sg25
S'2012-04-26'
p409
ssS'01109'
p410
(dp411
g17
S'2016-04-28'
p412
sg21
S'2010-04-23'
p413
sg4
S'2002-05-10'
p414
sg5
S'2003-04-29'
p415
sg6
Nsg7
Nsg8
S'2006-04-26'
p416
sg9
S'2007-10-16'
p417
sg10
S'2004-04-30'
p418
sg11
S'2005-04-27'
p419
sg12
S'2015-04-22'
p420
sg14
S'2014-04-29'
p421
sS'2017'
p422
S'2017-04-27'
p423
sg3
S'2009-04-28'
p424
sg19
S'2011-04-28'
p425
sg16
S'2008-04-24'
p426
sg23
S'2013-04-26'
p427
sg25
S'2012-04-27'
p428
ssS'00700'
p429
(dp430
g17
S'2016-03-29'
p431
sg21
S'2010-03-29'
p432
sg4
Nsg5
Nsg6
Nsg7
Nsg8
S'2006-04-06'
p433
sg9
S'2007-04-02'
p434
sg10
Nsg11
S'2005-03-30'
p435
sg12
S'2015-03-30'
p436
sg14
S'2014-03-31'
p437
sS'2017'
p438
S'2017-04-10'
p439
sg3
S'2009-03-31'
p440
sg19
S'2011-03-28'
p441
sg16
S'2008-04-01'
p442
sg23
S'2013-03-28'
p443
sg25
S'2012-03-25'
p444
ssS'00016'
p445
(dp446
g17
S'2016-10-05'
p447
sg21
S'2010-10-28'
p448
sg4
S'2002-10-18'
p449
sg5
S'2003-10-10'
p450
sg6
Nsg7
S'2001-10-19'
p451
sg8
S'2006-10-09'
p452
sg9
S'2007-10-10'
p453
sg10
S'2004-10-11'
p454
sg11
S'2005-10-05'
p455
sg12
S'2015-10-08'
p456
sg14
S'2014-10-14'
p457
sS'2017'
p458
S'2017-10-04'
p459
sg3
S'2009-10-22'
p460
sg19
S'2011-10-27'
p461
sg16
S'2008-10-14'
p462
sg23
S'2013-10-10'
p463
sg25
S'2012-10-14'
p464
ssS'00017'
p465
(dp466
g17
S'2016-10-17'
p467
sg21
S'2010-10-25'
p468
sg4
S'2002-11-01'
p469
sg5
S'2003-10-30'
p470
sg6
Nsg7
S'2001-10-31'
p471
sg8
S'2006-10-31'
p472
sg9
S'2007-10-30'
p473
sg10
S'2004-10-29'
p474
sg11
S'2005-10-31'
p475
sg12
S'2015-10-16'
p476
sg14
S'2014-10-17'
p477
sS'2017'
p478
S'2017-10-19'
p479
sg3
S'2009-10-29'
p480
sg19
S'2011-10-19'
p481
sg16
S'2008-10-30'
p482
sg23
S'2013-10-18'
p483
sg25
S'2012-10-19'
p484
ssS'00014'
p485
(dp486
g17
S'2016-03-31'
p487
sg4
S'2002-03-28'
p488
sg5
S'2003-03-26'
p489
sg6
Nsg7
S'2001-04-09'
p490
sg8
S'2006-03-31'
p491
sg9
S'2007-04-04'
p492
sg10
S'2004-03-24'
p493
sg11
S'2005-03-31'
p494
sg12
S'2015-03-31'
p495
sg14
S'2014-03-31'
p496
sg16
S'2008-03-31'
p497
sg3
S'2009-03-31'
p498
sg19
S'2011-03-31'
p499
sg21
S'2010-04-08'
p500
sg23
S'2013-03-28'
p501
sg25
S'2012-03-30'
p502
ssS'00020'
p503
(dp504
g3
S'2009-04-23'
p505
sg4
S'2002-07-26'
p506
sg5
S'2003-07-28'
p507
sg6
Nsg7
Nsg8
S'2006-07-26'
p508
sg9
S'2007-07-20'
p509
sg10
S'2004-06-28'
p510
sg11
S'2005-07-20'
p511
sg12
S'2015-04-15'
p512
sg14
S'2014-04-29'
p513
sg16
S'2008-04-28'
p514
sg17
S'2016-04-12'
p515
sg19
S'2011-04-27'
p516
sg21
S'2010-04-26'
p517
sg23
S'2013-04-29'
p518
sg25
S'2012-04-26'
p519
ssS'00012'
p520
(dp521
g17
S'2016-04-25'
p522
sg21
S'2010-04-28'
p523
sg4
S'2002-10-29'
p524
sg5
S'2003-10-27'
p525
sg6
Nsg7
S'2001-03-19'
p526
sg8
S'2006-10-26'
p527
sg9
S'2007-10-16'
p528
sg10
S'2004-10-27'
p529
sg11
S'2005-10-27'
p530
sg12
S'2015-04-27'
p531
sg14
S'2014-04-23'
p532
sS'2017'
p533
S'2017-04-25'
p534
sg3
Nsg19
S'2011-04-15'
p535
sg16
S'2008-10-23'
p536
sg23
S'2013-04-25'
p537
sg25
S'2012-04-20'
p538
ssS'00010'
p539
(dp540
g17
S'2016-03-23'
p541
sg4
S'2002-10-18'
p542
sg5
S'2003-10-22'
p543
sg6
Nsg7
S'2001-11-07'
p544
sg8
S'2006-10-20'
p545
sg9
S'2007-10-12'
p546
sg10
S'2004-11-01'
p547
sg11
S'2005-10-14'
p548
sg12
S'2015-03-24'
p549
sg14
S'2014-03-21'
p550
sg16
S'2008-10-03'
p551
sg3
S'2009-09-17'
p552
sg19
S'2011-09-15'
p553
sg21
S'2010-09-16'
p554
sg23
S'2013-03-14'
p555
sg25
S'2012-03-14'
p556
ssS'00011'
p557
(dp558
g17
S'2016-02-22'
p559
sg21
S'2010-03-01'
p560
sg4
S'2002-04-04'
p561
sg5
S'2003-03-27'
p562
sg6
Nsg7
S'2001-03-19'
p563
sg8
S'2006-04-04'
p564
sg9
S'2007-10-10'
p565
sg10
S'2004-03-29'
p566
sg11
S'2005-03-30'
p567
sg12
S'2015-02-23'
p568
sg14
S'2014-02-24'
p569
sS'2017'
p570
S'2017-02-21'
p571
sg3
S'2009-03-02'
p572
sg19
S'2011-02-28'
p573
sg16
S'2008-03-03'
p574
sg23
S'2013-03-04'
p575
sg25
S'2012-02-27'
p576
ssS'00027'
p577
(dp578
g17
S'2016-03-23'
p579
sg21
S'2010-04-28'
p580
sg4
S'2002-05-02'
p581
sg5
S'2003-04-28'
p582
sg6
Nsg7
Nsg8
S'2006-05-02'
p583
sg9
S'2007-10-16'
p584
sg10
S'2004-04-30'
p585
sg11
S'2005-03-18'
p586
sg12
S'2015-04-20'
p587
sg14
S'2014-04-16'
p588
sS'2017'
p589
S'2017-03-24'
p590
sg3
S'2009-04-28'
p591
sg19
S'2011-04-21'
p592
sg16
S'2008-04-29'
p593
sg23
S'2013-04-24'
p594
sg25
S'2012-04-13'
p595
ssS'00175'
p596
(dp597
g17
S'2016-04-12'
p598
sg21
S'2010-04-19'
p599
sg4
S'2002-05-02'
p600
sg5
S'2003-05-06'
p601
sg6
Nsg7
Nsg8
S'2006-04-27'
p602
sg9
S'2007-10-12'
p603
sg10
S'2004-04-26'
p604
sg11
S'2005-05-05'
p605
sg12
S'2015-03-27'
p606
sg14
S'2014-03-26'
p607
sS'2017'
p608
S'2017-04-10'
p609
sg3
S'2009-04-22'
p610
sg19
S'2011-03-29'
p611
sg16
S'2008-04-22'
p612
sg23
S'2013-03-26'
p613
sg25
S'2012-03-28'
p614
ssS'01088'
p615
(dp616
g17
S'2016-03-28'
p617
sg21
S'2010-03-12'
p618
sg4
Nsg5
Nsg6
Nsg7
Nsg8
S'2006-03-27'
p619
sg9
S'2007-03-27'
p620
sg10
Nsg11
Nsg12
S'2015-03-22'
p621
sg14
S'2014-03-30'
p622
sS'2017'
p623
S'2017-03-19'
p624
sg3
S'2009-03-29'
p625
sg19
S'2011-03-25'
p626
sg16
S'2008-03-26'
p627
sg23
S'2013-03-24'
p628
sg25
S'2012-03-30'
p629
ssS'00019'
p630
(dp631
g17
S'2016-04-06'
p632
sg21
S'2010-04-08'
p633
sg4
S'2002-04-11'
p634
sg5
S'2003-05-07'
p635
sg6
Nsg7
S'2001-03-29'
p636
sg8
S'2006-04-06'
p637
sg9
S'2007-06-26'
p638
sg10
S'2004-04-14'
p639
sg11
S'2005-04-06'
p640
sg12
S'2015-04-13'
p641
sg14
S'2014-04-07'
p642
sS'2017'
p643
S'2017-04-10'
p644
sg3
S'2009-04-08'
p645
sg19
S'2011-04-07'
p646
sg16
S'2008-04-08'
p647
sg23
S'2013-04-08'
p648
sg25
S'2012-04-05'
p649
ssS'00836'
p650
(dp651
g17
S'2016-04-28'
p652
sg21
S'2010-04-26'
p653
sg4
Nsg5
Nsg6
Nsg7
Nsg8
S'2006-04-26'
p654
sg9
S'2007-10-12'
p655
sg10
S'2004-04-14'
p656
sg11
S'2005-05-04'
p657
sg12
S'2015-04-27'
p658
sg14
S'2014-04-25'
p659
sS'2017'
p660
S'2017-04-28'
p661
sg3
S'2009-04-26'
p662
sg19
S'2011-04-28'
p663
sg16
S'2008-04-29'
p664
sg23
S'2013-04-15'
p665
sg25
S'2012-04-30'
p666
ssS'00857'
p667
(dp668
g17
S'2016-04-15'
p669
sg21
S'2010-04-14'
p670
sg4
S'2002-06-24'
p671
sg5
S'2003-04-25'
p672
sg6
Nsg7
Nsg8
Nsg9
S'2007-04-13'
p673
sg10
Nsg11
S'2005-04-04'
p674
sg12
S'2015-04-15'
p675
sg14
S'2014-04-08'
p676
sS'2017'
p677
S'2017-04-21'
p678
sg3
S'2009-04-15'
p679
sg19
S'2011-04-06'
p680
sg16
S'2008-04-15'
p681
sg23
S'2013-04-09'
p682
sg25
S'2012-04-16'
p683
ssS'00992'
p684
(dp685
g17
S'2016-06-03'
p686
sg21
S'2010-06-28'
p687
sg4
S'2002-06-11'
p688
sg5
S'2003-06-18'
p689
sg6
Nsg7
S'2001-07-13'
p690
sg8
S'2006-07-12'
p691
sg9
S'2007-06-26'
p692
sg10
S'2004-06-23'
p693
sg11
S'2005-07-11'
p694
sg12
S'2015-05-27'
p695
sg14
S'2014-05-29'
p696
sS'2017'
p697
S'2017-06-05'
p698
sg3
S'2009-06-26'
p699
sg19
S'2011-06-20'
p700
sg16
S'2008-06-26'
p701
sg23
S'2013-05-31'
p702
sg25
S'2012-05-31'
p703
ssS'03328'
p704
(dp705
g17
S'2016-04-19'
p706
sg21
S'2010-04-16'
p707
sg4
Nsg5
Nsg6
Nsg7
Nsg8
S'2006-04-19'
p708
sg9
S'2007-03-26'
p709
sg10
Nsg11
Nsg12
S'2015-04-17'
p710
sg14
S'2014-04-16'
p711
sS'2017'
p712
S'2017-04-18'
p713
sg3
S'2009-04-08'
p714
sg19
S'2011-04-19'
p715
sg16
S'2008-04-02'
p716
sg23
S'2013-04-15'
p717
sg25
S'2012-04-20'
p718
ssS'00023'
p719
(dp720
g17
S'2016-03-15'
p721
sg21
S'2010-03-17'
p722
sg4
S'2002-03-07'
p723
sg5
S'2003-03-03'
p724
sg6
Nsg7
S'2001-03-01'
p725
sg8
S'2006-03-08'
p726
sg9
S'2007-07-20'
p727
sg10
S'2004-03-08'
p728
sg11
S'2005-03-11'
p729
sg12
S'2015-03-25'
p730
sg14
S'2014-03-24'
p731
sS'2017'
p732
S'2017-03-28'
p733
sg3
S'2009-03-12'
p734
sg19
S'2011-03-17'
p735
sg16
S'2008-03-18'
p736
sg23
S'2013-03-26'
p737
sg25
S'2012-03-20'
p738
ssS'01199'
p739
(dp740
g3
S'2009-04-24'
p741
sg4
S'2002-04-29'
p742
sg5
S'2003-04-10'
p743
sg6
Nsg7
Nsg8
S'2006-04-19'
p744
sg9
S'2007-04-17'
p745
sg10
S'2004-04-08'
p746
sg11
S'2005-03-18'
p747
sg12
S'2015-04-13'
p748
sg14
S'2014-04-08'
p749
sg16
S'2008-04-21'
p750
sg17
S'2016-04-14'
p751
sg19
S'2011-04-08'
p752
sg21
S'2010-04-23'
p753
sg23
S'2013-04-16'
p754
sg25
S'2012-04-16'
p755
ssS'01113'
p756
(dp757
g17
S'2016-04-08'
p758
sg21
Nsg4
Nsg5
Nsg6
Nsg7
Nsg8
Nsg9
Nsg10
Nsg11
Nsg12
Nsg14
NsS'2017'
p759
S'2017-04-05'
p760
sg3
Nsg19
Nsg16
Nsg23
Nsg25
NssS'00939'
p761
(dp762
g17
S'2016-04-29'
p763
sg21
S'2010-04-29'
p764
sg4
Nsg5
Nsg6
Nsg7
Nsg8
S'2006-04-26'
p765
sg9
S'2007-04-27'
p766
sg10
Nsg11
Nsg12
S'2015-04-29'
p767
sg14
S'2014-04-27'
p768
sS'2017'
p769
S'2017-04-28'
p770
sg3
S'2009-04-24'
p771
sg19
S'2011-04-25'
p772
sg16
S'2008-04-25'
p773
sg23
S'2013-04-21'
p774
sg25
S'2012-04-22'
p775
ssS'00322'
p776
(dp777
g3
S'2009-04-27'
p778
sg4
S'2002-05-09'
p779
sg5
S'2003-05-02'
p780
sg6
Nsg7
Nsg8
S'2006-04-26'
p781
sg9
S'2007-10-12'
p782
sg10
S'2004-04-21'
p783
sg11
S'2005-04-27'
p784
sg12
S'2015-04-16'
p785
sg14
S'2014-04-09'
p786
sg16
S'2008-04-22'
p787
sg17
S'2016-04-20'
p788
sg19
S'2011-03-31'
p789
sg21
S'2010-04-12'
p790
sg23
S'2013-04-12'
p791
sg25
S'2012-03-30'
p792
ssS'00288'
p793
(dp794
g17
S'2016-04-18'
p795
sg21
Nsg4
Nsg5
Nsg6
Nsg7
Nsg8
Nsg9
Nsg10
Nsg11
Nsg12
S'2015-04-16'
p796
sg14
NsS'2017'
p797
S'2017-04-12'
p798
sg3
Nsg19
Nsg16
Nsg23
Nsg25
NssS'00386'
p799
(dp800
g17
S'2016-03-29'
p801
sg21
S'2010-03-29'
p802
sg4
Nsg5
S'2003-05-09'
p803
sg6
Nsg7
Nsg8
S'2006-04-10'
p804
sg9
S'2007-04-12'
p805
sg10
S'2004-04-02'
p806
sg11
S'2005-04-04'
p807
sg12
S'2015-03-22'
p808
sg14
S'2014-03-23'
p809
sS'2017'
p810
S'2017-03-26'
p811
sg3
S'2009-03-31'
p812
sg19
S'2011-03-27'
p813
sg16
S'2008-04-07'
p814
sg23
S'2013-03-24'
p815
sg25
S'2012-03-25'
p816
ssS'00144'
p817
(dp818
g17
S'2016-04-21'
p819
sg21
S'2010-04-21'
p820
sg4
Nsg5
Nsg6
Nsg7
Nsg8
S'2006-04-25'
p821
sg9
S'2007-05-02'
p822
sg10
S'2004-04-14'
p823
sg11
S'2005-04-04'
p824
sg12
S'2015-04-23'
p825
sg14
S'2014-04-16'
p826
sS'2017'
p827
S'2017-04-27'
p828
sg3
S'2009-04-29'
p829
sg19
S'2011-04-26'
p830
sg16
S'2008-04-24'
p831
sg23
S'2013-04-29'
p832
sg25
S'2012-04-25'
p833
ssS'00363'
p834
(dp835
g17
S'2016-04-14'
p836
sg4
S'2002-05-06'
p837
sg5
S'2003-05-05'
p838
sg6
Nsg7
S'2001-05-02'
p839
sg8
S'2006-05-03'
p840
sg9
S'2007-05-02'
p841
sg10
S'2004-05-04'
p842
sg11
S'2005-05-05'
p843
sg12
S'2015-04-14'
p844
sg14
S'2014-04-14'
p845
sg16
S'2008-04-24'
p846
sg3
S'2009-04-29'
p847
sg19
S'2011-04-12'
p848
sg21
S'2010-04-15'
p849
sg23
S'2013-04-17'
p850
sg25
S'2012-04-19'
p851
ssS'00066'
p852
(dp853
g17
S'2016-04-13'
p854
sg21
S'2010-04-23'
p855
sg4
S'2002-03-21'
p856
sg5
S'2003-03-20'
p857
sg6
Nsg7
S'2001-03-21'
p858
sg8
S'2006-04-18'
p859
sg9
S'2007-10-10'
p860
sg10
S'2004-03-17'
p861
sg11
S'2005-03-16'
p862
sg12
S'2015-04-15'
p863
sg14
S'2014-04-02'
p864
sS'2017'
p865
S'2017-04-07'
p866
sg3
S'2009-04-24'
p867
sg19
S'2011-03-30'
p868
sg16
S'2008-04-25'
p869
sg23
S'2013-04-08'
p870
sg25
S'2012-03-28'
p871
ssS'01299'
p872
(dp873
g17
S'2016-03-23'
p874
sg21
Nsg4
Nsg5
Nsg6
Nsg7
Nsg8
Nsg9
Nsg10
Nsg11
Nsg12
S'2015-03-26'
p875
sg14
S'2014-03-24'
p876
sS'2017'
p877
S'2017-03-23'
p878
sg3
Nsg19
S'2011-03-25'
p879
sg16
Nsg23
S'2013-03-25'
p880
sg25
S'2012-03-23'
p881
ssS'01038'
p882
(dp883
g17
S'2016-04-07'
p884
sg21
S'2010-04-01'
p885
sg4
S'2002-04-09'
p886
sg5
S'2003-03-31'
p887
sg6
Nsg7
S'2001-04-04'
p888
sg8
S'2006-04-06'
p889
sg9
S'2007-10-10'
p890
sg10
S'2004-03-24'
p891
sg11
S'2005-04-01'
p892
sg12
S'2015-03-31'
p893
sg14
S'2014-04-04'
p894
sS'2017'
p895
S'2017-03-31'
p896
sg3
S'2009-04-06'
p897
sg19
S'2011-03-31'
p898
sg16
S'2008-04-10'
p899
sg23
S'2013-04-03'
p900
sg25
S'2012-04-12'
p901
ssS'02018'
p902
(dp903
g17
S'2016-04-18'
p904
sg21
S'2010-04-26'
p905
sg4
Nsg5
Nsg6
Nsg7
Nsg8
S'2006-05-03'
p906
sg9
S'2007-07-20'
p907
sg10
Nsg11
Nsg12
S'2015-04-15'
p908
sg14
S'2014-04-11'
p909
sS'2017'
p910
S'2017-04-18'
p911
sg3
S'2009-04-20'
p912
sg19
S'2011-04-14'
p913
sg16
S'2008-04-17'
p914
sg23
S'2013-04-12'
p915
sg25
S'2012-04-13'
p916
ssS'00883'
p917
(dp918
g17
S'2016-04-06'
p919
sg21
S'2010-04-09'
p920
sg4
S'2002-05-02'
p921
sg5
S'2003-04-14'
p922
sg6
Nsg7
S'2001-05-02'
p923
sg8
S'2006-04-13'
p924
sg9
S'2007-04-11'
p925
sg10
S'2004-04-06'
p926
sg11
S'2005-04-18'
p927
sg12
S'2015-04-09'
p928
sg14
S'2014-04-09'
p929
sS'2017'
p930
S'2017-04-25'
p931
sg3
S'2009-04-09'
p932
sg19
S'2011-04-07'
p933
sg16
S'2008-04-11'
p934
sg23
S'2013-04-08'
p935
sg25
S'2012-04-12'
p936
ssS'01398'
p937
(dp938
g17
S'2016-04-22'
p939
sg21
S'2010-04-25'
p940
sg4
Nsg5
Nsg6
Nsg7
Nsg8
Nsg9
S'2007-04-27'
p941
sg10
Nsg11
Nsg12
S'2015-04-21'
p942
sg14
S'2014-04-22'
p943
sS'2017'
p944
S'2017-04-21'
p945
sg3
S'2009-04-27'
p946
sg19
S'2011-04-27'
p947
sg16
S'2008-04-17'
p948
sg23
S'2013-04-22'
p949
sg25
S'2012-04-25'
p950
ssS'02388'
p951
(dp952
g17
S'2016-03-30'
p953
sg21
S'2010-03-23'
p954
sg4
S'2002-09-12'
p955
sg5
S'2003-04-04'
p956
sg6
Nsg7
Nsg8
S'2006-04-11'
p957
sg9
S'2007-04-20'
p958
sg10
S'2004-04-06'
p959
sg11
S'2005-04-07'
p960
sg12
S'2015-03-25'
p961
sg14
S'2014-03-26'
p962
sS'2017'
p963
S'2017-03-31'
p964
sg3
S'2009-03-24'
p965
sg19
S'2011-03-24'
p966
sg16
S'2008-04-10'
p967
sg23
S'2013-03-26'
p968
sg25
S'2012-03-29'
p969
ssS'02038'
p970
(dp971
g3
S'2009-03-11'
p972
sg4
Nsg5
Nsg6
Nsg7
Nsg8
S'2006-05-02'
p973
sg9
S'2007-04-27'
p974
sg10
Nsg11
S'2005-05-03'
p975
sg12
S'2015-04-09'
p976
sg14
S'2014-04-15'
p977
sg16
S'2008-04-29'
p978
sg17
S'2016-04-14'
p979
sg19
S'2011-04-08'
p980
sg21
S'2010-04-29'
p981
sg23
S'2013-04-17'
p982
sg25
S'2012-04-12'
p983
ssS'00101'
p984
(dp985
g17
S'2016-03-23'
p986
sg21
S'2010-09-16'
p987
sg4
S'2002-10-18'
p988
sg5
S'2003-10-22'
p989
sg6
Nsg7
S'2001-11-07'
p990
sg8
S'2006-10-20'
p991
sg9
S'2007-10-12'
p992
sg10
S'2004-11-01'
p993
sg11
S'2005-10-14'
p994
sg12
S'2015-03-24'
p995
sg14
S'2014-03-21'
p996
sS'2017'
p997
S'2017-03-22'
p998
sg3
S'2009-09-17'
p999
sg19
S'2011-09-15'
p1000
sg16
S'2008-10-03'
p1001
sg23
S'2013-03-14'
p1002
sg25
S'2012-03-14'
p1003
ssS'00005'
p1004
(dp1005
g17
S'2016-03-17'
p1006
sg21
S'2010-03-29'
p1007
sg4
S'2002-03-04'
p1008
sg5
S'2003-03-03'
p1009
sg6
Nsg7
S'2001-02-26'
p1010
sg8
S'2006-03-06'
p1011
sg9
S'2007-03-06'
p1012
sg10
S'2004-03-01'
p1013
sg11
S'2005-02-28'
p1014
sg12
S'2015-03-19'
p1015
sg14
S'2014-03-24'
p1016
sS'2017'
p1017
S'2017-03-07'
p1018
sg3
S'2009-03-03'
p1019
sg19
S'2011-03-29'
p1020
sg16
S'2008-04-02'
p1021
sg23
S'2013-04-02'
p1022
sg25
S'2012-03-26'
p1023
ssS'00004'
p1024
(dp1025
g17
S'2016-04-07'
p1026
sg21
S'2010-04-23'
p1027
sg4
S'2002-04-29'
p1028
sg5
S'2003-05-05'
p1029
sg6
Nsg7
Nsg8
S'2006-04-26'
p1030
sg9
S'2007-10-10'
p1031
sg10
S'2004-04-26'
p1032
sg11
S'2005-04-22'
p1033
sg12
S'2015-04-13'
p1034
sg14
S'2014-04-28'
p1035
sS'2017'
p1036
S'2017-03-31'
p1037
sg3
S'2009-04-23'
p1038
sg19
S'2011-04-26'
p1039
sg16
S'2008-04-25'
p1040
sg23
S'2013-04-29'
p1041
sg25
S'2012-04-26'
p1042
ssS'00267'
p1043
(dp1044
g17
S'2016-04-15'
p1045
sg21
S'2010-03-29'
p1046
sg4
S'2002-04-04'
p1047
sg5
S'2003-03-27'
p1048
sg6
Nsg7
S'2001-04-11'
p1049
sg8
S'2006-04-10'
p1050
sg9
S'2007-04-16'
p1051
sg10
S'2004-04-06'
p1052
sg11
S'2005-03-30'
p1053
sg12
S'2015-04-17'
p1054
sg14
S'2014-03-17'
p1055
sS'2017'
p1056
S'2017-04-18'
p1057
sg3
S'2009-04-14'
p1058
sg19
S'2011-03-21'
p1059
sg16
S'2008-04-03'
p1060
sg23
S'2013-03-19'
p1061
sg25
S'2012-03-20'
p1062
ssS'00006'
p1063
(dp1064
g17
S'2016-04-08'
p1065
sg21
S'2010-04-01'
p1066
sg4
S'2002-04-09'
p1067
sg5
S'2003-04-24'
p1068
sg6
Nsg7
S'2001-04-02'
p1069
sg8
S'2006-04-10'
p1070
sg9
S'2007-04-04'
p1071
sg10
S'2004-04-13'
p1072
sg11
S'2005-04-07'
p1073
sg12
S'2015-03-30'
p1074
sg14
S'2014-03-25'
p1075
sS'2017'
p1076
S'2017-03-30'
p1077
sg3
S'2009-04-09'
p1078
sg19
S'2011-04-04'
p1079
sg16
S'2008-04-02'
p1080
sg23
S'2013-04-03'
p1081
sg25
S'2012-04-16'
p1082
ssS'00001'
p1083
(dp1084
g17
S'2016-04-12'
p1085
sg21
S'2010-04-22'
p1086
sg4
S'2002-04-24'
p1087
sg5
S'2003-04-07'
p1088
sg6
Nsg7
S'2001-04-17'
p1089
sg8
S'2006-04-20'
p1090
sg9
S'2007-04-19'
p1091
sg10
S'2004-04-02'
p1092
sg11
S'2005-04-22'
p1093
sg12
S'2015-04-29'
p1094
sg14
S'2014-04-07'
p1095
sS'2017'
p1096
S'2017-04-05'
p1097
sg3
S'2009-04-09'
p1098
sg19
S'2011-04-11'
p1099
sg16
S'2008-04-23'
p1100
sg23
S'2013-04-08'
p1101
sg25
S'2012-04-10'
p1102
ssS'02600'
p1103
(dp1104
g3
S'2009-04-09'
p1105
sg4
S'2002-05-10'
p1106
sg5
S'2003-04-29'
p1107
sg6
Nsg7
Nsg8
S'2006-03-27'
p1108
sg9
S'2007-10-12'
p1109
sg10
S'2004-04-14'
p1110
sg11
S'2005-04-12'
p1111
sg12
S'2015-04-23'
p1112
sg14
S'2014-04-24'
p1113
sg16
S'2008-03-25'
p1114
sg17
S'2016-04-06'
p1115
sg19
S'2011-04-13'
p1116
sg21
S'2010-04-01'
p1117
sg23
S'2013-04-19'
p1118
sg25
S'2012-04-23'
p1119
ssS'00003'
p1120
(dp1121
g17
S'2016-04-21'
p1122
sg21
S'2010-04-23'
p1123
sg4
S'2002-04-10'
p1124
sg5
S'2003-04-28'
p1125
sg6
Nsg7
S'2001-04-06'
p1126
sg8
S'2006-04-25'
p1127
sg9
S'2007-10-10'
p1128
sg10
S'2004-03-26'
p1129
sg11
S'2005-03-30'
p1130
sg12
S'2015-04-22'
p1131
sg14
S'2014-04-23'
p1132
sS'2017'
p1133
S'2017-04-19'
p1134
sg3
S'2009-04-20'
p1135
sg19
S'2011-04-21'
p1136
sg16
S'2008-04-23'
p1137
sg23
S'2013-04-22'
p1138
sg25
S'2012-04-25'
p1139
ssS'00002'
p1140
(dp1141
g17
S'2016-03-11'
p1142
sg21
S'2010-03-10'
p1143
sg4
S'2002-03-15'
p1144
sg5
S'2003-03-10'
p1145
sg6
Nsg7
S'2001-03-16'
p1146
sg8
S'2006-03-14'
p1147
sg9
S'2007-10-10'
p1148
sg10
S'2004-03-10'
p1149
sg11
S'2005-03-14'
p1150
sg12
S'2015-03-11'
p1151
sg14
S'2014-03-12'
p1152
sS'2017'
p1153
S'2017-03-10'
p1154
sg3
S'2009-03-11'
p1155
sg19
S'2011-03-09'
p1156
sg16
S'2008-03-12'
p1157
sg23
S'2013-03-08'
p1158
sg25
S'2012-03-09'
p1159
ssS'02628'
p1160
(dp1161
g17
S'2016-04-11'
p1162
sg21
S'2010-04-16'
p1163
sg4
Nsg5
Nsg6
Nsg7
Nsg8
S'2006-05-02'
p1164
sg9
S'2007-04-30'
p1165
sg10
S'2004-04-29'
p1166
sg11
S'2005-05-04'
p1167
sg12
S'2015-04-09'
p1168
sg14
S'2014-04-09'
p1169
sS'2017'
p1170
S'2017-04-11'
p1171
sg3
S'2009-04-09'
p1172
sg19
S'2011-04-08'
p1173
sg16
S'2008-04-07'
p1174
sg23
S'2013-04-17'
p1175
sg25
S'2012-04-04'
p1176
ssS'00008'
p1177
(dp1178
g17
S'2016-03-23'
p1179
sg4
S'2002-04-10'
p1180
sg5
S'2003-04-04'
p1181
sg6
Nsg7
S'2001-04-26'
p1182
sg8
S'2006-04-13'
p1183
sg9
S'2007-04-18'
p1184
sg10
S'2004-03-19'
p1185
sg11
S'2005-04-13'
p1186
sg12
S'2015-03-13'
p1187
sg14
S'2014-03-27'
p1188
sg16
S'2008-04-16'
p1189
sg3
S'2009-04-29'
p1190
sg19
S'2011-04-26'
p1191
sg21
S'2010-04-08'
p1192
sg23
S'2013-03-26'
p1193
sg25
S'2012-03-26'
p1194
ssS'00388'
p1195
(dp1196
g17
S'2016-03-21'
p1197
sg21
S'2010-03-15'
p1198
sg4
S'2002-03-21'
p1199
sg5
S'2003-03-21'
p1200
sg6
Nsg7
Nsg8
S'2006-03-08'
p1201
sg9
S'2007-10-10'
p1202
sg10
S'2004-02-27'
p1203
sg11
S'2005-02-28'
p1204
sg12
S'2015-03-23'
p1205
sg14
S'2014-03-14'
p1206
sS'2017'
p1207
S'2017-03-20'
p1208
sg3
S'2009-03-16'
p1209
sg19
S'2011-03-14'
p1210
sg16
S'2008-03-25'
p1211
sg23
S'2013-03-11'
p1212
sg25
S'2012-03-12'
p1213
ss.